Certificate:
    Data:
        Version: 3 (0x2)
        Serial Number:
            86:f3:42:2c:5f:c1:81:b5:81:b9:c1:a3:93:97:e9:f0
        Signature Algorithm: sha256WithRSAEncryption
        Issuer: CN=pki.example.tld
        Validity
            Not Before: Feb  7 17:48:19 2025 GMT
            Not After : May 13 17:48:19 2027 GMT
        Subject: CN=mqtt.example.tld
        Subject Public Key Info:
            Public Key Algorithm: rsaEncryption
                Public-Key: (2048 bit)
                Modulus:
                    00:9a:0b:4d:3a:18:23:9c:00:2f:7c:1b:3d:15:c3:
                    95:94:3c:39:01:10:db:85:19:21:ab:e8:e9:83:ed:
                    38:cf:18:90:15:a5:dc:34:3e:3c:c1:cc:a4:ba:63:
                    dc:31:e0:05:46:41:77:ae:bf:68:41:88:a9:45:a7:
                    7f:5d:61:cb:be:25:7a:b4:8d:f1:c8:70:08:22:8f:
                    43:40:2a:56:2a:31:10:e9:2b:03:ea:c4:8f:ef:a4:
                    a7:b5:98:5c:f4:ba:25:fc:47:b9:52:b6:88:16:61:
                    ab:d7:01:6a:3a:42:a0:04:59:46:8b:84:58:dd:be:
                    e8:93:c3:2a:a5:f2:72:53:6a:a1:24:71:73:be:43:
                    f4:15:ed:72:74:cc:bd:cc:6c:80:c5:fa:32:fd:4c:
                    fe:c2:80:d8:bc:be:b3:66:cd:12:83:66:5b:6f:ed:
                    90:1f:07:00:e0:a5:28:ef:0d:82:72:82:c9:8d:f2:
                    dd:1a:db:c4:c6:7b:16:3a:97:89:68:0b:f6:fe:93:
                    52:be:3e:94:e4:f6:b3:61:94:ee:ec:1f:8a:8b:ea:
                    d7:1d:d7:c4:e4:be:c8:01:77:e9:20:56:59:64:6a:
                    08:41:9a:97:45:8b:e1:70:2c:81:ac:4f:bb:b3:8d:
                    28:62:36:62:6a:00:32:47:48:98:35:d4:a8:dd:99:
                    35:29
                Exponent: 65537 (0x10001)
        X509v3 extensions:
            X509v3 Basic Constraints: 
                CA:FALSE
            X509v3 Subject Key Identifier: 
                D0:E3:93:11:C9:06:A5:45:3F:43:CC:06:8E:03:9B:E9:20:65:49:FD
            X509v3 Authority Key Identifier: 
                keyid:E3:67:CD:D9:C1:9D:4E:67:F5:9E:09:2D:D2:3B:AB:85:DE:5A:80:42
                DirName:/CN=pki.example.tld
                serial:24:D3:23:CA:39:B3:4F:98:3D:6E:B9:B2:A0:4E:09:47:A1:21:BA:BA
            X509v3 Extended Key Usage: 
                TLS Web Server Authentication
            X509v3 Key Usage: 
                Digital Signature, Key Encipherment
    Signature Algorithm: sha256WithRSAEncryption
    Signature Value:
        75:c9:06:33:67:36:a2:20:6f:5f:6a:e0:a5:a8:a7:19:f4:b3:
        08:13:b0:ef:34:6a:1d:60:76:2f:5f:04:14:45:22:25:91:de:
        7c:32:38:51:f0:d6:ae:de:03:9e:df:40:ac:f3:88:99:24:ef:
        6b:b9:a6:18:fa:6b:21:0f:61:dd:ea:0d:db:75:f0:fc:24:e1:
        a0:f7:9c:5c:e7:85:5c:cd:bb:b1:99:ac:ea:30:dd:e7:9d:d7:
        15:11:79:9b:ea:c5:42:90:fc:97:02:b2:97:9e:52:9b:2b:66:
        0a:04:0a:5a:a7:ae:fc:1d:25:ce:81:56:ae:49:46:0f:59:fb:
        2a:5f:a5:ef:e4:d1:d5:e4:9c:cd:4d:66:55:3d:7a:cb:fb:87:
        ee:61:4d:2d:21:cd:8e:f5:94:7b:ed:a9:a2:d5:33:d1:c9:24:
        78:cb:05:45:cc:43:18:e6:13:a7:57:cf:91:a7:d1:ba:50:b3:
        9f:49:e6:d9:07:65:75:9e:c3:dc:18:93:35:47:7f:c9:c0:d6:
        08:26:08:99:14:d2:3c:f2:ec:f0:dc:89:dd:4f:73:86:ae:8e:
        ba:a7:c3:eb:2d:39:77:fc:91:39:14:09:b5:d0:87:2c:bb:13:
        7c:2d:c8:41:40:2f:14:da:88:52:ba:a6:91:8f:99:66:ab:d6:
        25:f2:5a:f2:ce:23:b0:33:ba:ac:f3:82:68:9a:aa:38:29:19:
        63:63:52:73:54:76:d7:3c:39:02:30:d6:6e:9f:3e:89:85:28:
        1c:39:36:a2:f1:7c:08:1a:75:ee:e8:0e:d4:77:0d:e0:77:6a:
        d6:81:85:b6:a4:68:80:2a:03:6b:2a:91:5f:6b:39:9b:24:85:
        4a:20:7e:ed:96:5a:37:d3:5b:2c:49:e1:c3:f2:40:01:23:8a:
        a1:42:db:15:41:2a:6e:61:a4:97:f8:18:00:e2:14:98:7d:8d:
        93:54:ac:ba:e8:89:d0:6f:a6:23:fb:6d:a3:99:8f:b6:ef:a0:
        56:86:6f:d2:d6:af:d5:dc:ff:53:57:45:09:4b:18:d1:a4:8a:
        c3:16:d2:ac:8e:ff:46:21:f3:92:20:65:bd:c9:c9:29:1e:8c:
        14:2b:c7:ff:92:4c:37:95:0d:dc:4a:38:44:a5:11:fe:11:61:
        8c:39:a9:23:f8:8e:52:71:fe:de:d2:fa:9a:48:82:c4:1d:e8:
        2c:ae:8f:f5:ff:cc:2f:76:01:80:39:ca:3b:02:45:b6:df:00:
        47:35:5d:50:cb:c4:4b:7b:03:ec:f4:8d:d9:53:b2:c9:d7:cb:
        53:25:01:31:ed:c4:e0:1e:a7:ca:3d:07:c7:6d:0f:71:37:52:
        0e:5f:16:22:e6:4d:2a:81
-----BEGIN CERTIFICATE-----
MIIEZzCCAk+gAwIBAgIRAIbzQixfwYG1gbnBo5OX6fAwDQYJKoZIhvcNAQELBQAw
GjEYMBYGA1UEAwwPcGtpLmV4YW1wbGUudGxkMB4XDTI1MDIwNzE3NDgxOVoXDTI3
MDUxMzE3NDgxOVowGzEZMBcGA1UEAwwQbXF0dC5leGFtcGxlLnRsZDCCASIwDQYJ
KoZIhvcNAQEBBQADggEPADCCAQoCggEBAJoLTToYI5wAL3wbPRXDlZQ8OQEQ24UZ
Iavo6YPtOM8YkBWl3DQ+PMHMpLpj3DHgBUZBd66/aEGIqUWnf11hy74lerSN8chw
CCKPQ0AqVioxEOkrA+rEj++kp7WYXPS6JfxHuVK2iBZhq9cBajpCoARZRouEWN2+
6JPDKqXyclNqoSRxc75D9BXtcnTMvcxsgMX6Mv1M/sKA2Ly+s2bNEoNmW2/tkB8H
AOClKO8NgnKCyY3y3RrbxMZ7FjqXiWgL9v6TUr4+lOT2s2GU7uwfiovq1x3XxOS+
yAF36SBWWWRqCEGal0WL4XAsgaxPu7ONKGI2YmoAMkdImDXUqN2ZNSkCAwEAAaOB
pjCBozAJBgNVHRMEAjAAMB0GA1UdDgQWBBTQ45MRyQalRT9DzAaOA5vpIGVJ/TBV
BgNVHSMETjBMgBTjZ83ZwZ1OZ/WeCS3SO6uF3lqAQqEepBwwGjEYMBYGA1UEAwwP
cGtpLmV4YW1wbGUudGxkghQk0yPKObNPmD1uubKgTglHoSG6ujATBgNVHSUEDDAK
BggrBgEFBQcDATALBgNVHQ8EBAMCBaAwDQYJKoZIhvcNAQELBQADggIBAHXJBjNn
NqIgb19q4KWopxn0swgTsO80ah1gdi9fBBRFIiWR3nwyOFHw1q7eA57fQKzziJkk
72u5phj6ayEPYd3qDdt18Pwk4aD3nFznhVzNu7GZrOow3eed1xUReZvqxUKQ/JcC
speeUpsrZgoEClqnrvwdJc6BVq5JRg9Z+ypfpe/k0dXknM1NZlU9esv7h+5hTS0h
zY71lHvtqaLVM9HJJHjLBUXMQxjmE6dXz5Gn0bpQs59J5tkHZXWew9wYkzVHf8nA
1ggmCJkU0jzy7PDcid1Pc4aujrqnw+stOXf8kTkUCbXQhyy7E3wtyEFALxTaiFK6
ppGPmWar1iXyWvLOI7AzuqzzgmiaqjgpGWNjUnNUdtc8OQIw1m6fPomFKBw5NqLx
fAgade7oDtR3DeB3ataBhbakaIAqA2sqkV9rOZskhUogfu2WWjfTWyxJ4cPyQAEj
iqFC2xVBKm5hpJf4GADiFJh9jZNUrLroidBvpiP7baOZj7bvoFaGb9LWr9Xc/1NX
RQlLGNGkisMW0qyO/0Yh85IgZb3JySkejBQrx/+STDeVDdxKOESlEf4RYYw5qSP4
jlJx/t7S+ppIgsQd6Cyuj/X/zC92AYA5yjsCRbbfAEc1XVDLxEt7A+z0jdlTssnX
y1MlATHtxOAep8o9B8dtD3E3Ug5fFiLmTSqB
-----END CERTIFICATE-----
